target datalayout = "e-m:e-p270:32:32-p271:32:32-p272:64:64-i64:64-i128:128-f80:128-n8:16:32:64-S128"
target triple = "x86_64-unknown-linux-gnu"

%"struct.Imf_3_2::InputFile::Data" = type <{ %"class.std::mutex", %"class.Imf_3_2::Header", i32, i8, [3 x i8], ptr, ptr, ptr, i32, i32, i32, [4 x i8], %"class.Imf_3_2::FrameBuffer", ptr, ptr, i32, i32, i32, i32, ptr, i8, [7 x i8], ptr, ptr, i8, [7 x i8] }>
%"class.std::mutex" = type { %"class.std::__mutex_base" }
%"class.std::__mutex_base" = type { %union.pthread_mutex_t }
%union.pthread_mutex_t = type { %struct.__pthread_mutex_s }
%struct.__pthread_mutex_s = type { i32, i32, i32, i32, i32, i16, i16, %struct.__pthread_internal_list }
%struct.__pthread_internal_list = type { ptr, ptr }
%"class.Imf_3_2::Header" = type <{ %"class.std::map", i8, [7 x i8] }>
%"class.std::map" = type { %"class.std::_Rb_tree" }
%"class.std::_Rb_tree" = type { %"struct.std::_Rb_tree<Imf_3_2::Name, std::pair<const Imf_3_2::Name, Imf_3_2::Attribute *>, std::_Select1st<std::pair<const Imf_3_2::Name, Imf_3_2::Attribute *>>, std::less<Imf_3_2::Name>>::_Rb_tree_impl" }
%"struct.std::_Rb_tree<Imf_3_2::Name, std::pair<const Imf_3_2::Name, Imf_3_2::Attribute *>, std::_Select1st<std::pair<const Imf_3_2::Name, Imf_3_2::Attribute *>>, std::less<Imf_3_2::Name>>::_Rb_tree_impl" = type { %"struct.std::_Rb_tree_key_compare", %"struct.std::_Rb_tree_header" }
%"struct.std::_Rb_tree_key_compare" = type { %"struct.std::less" }
%"struct.std::less" = type { i8 }
%"struct.std::_Rb_tree_header" = type { %"struct.std::_Rb_tree_node_base", i64 }
%"struct.std::_Rb_tree_node_base" = type { i32, ptr, ptr, ptr }
%"class.Imf_3_2::FrameBuffer" = type { %"class.std::map.3" }
%"class.std::map.3" = type { %"class.std::_Rb_tree.4" }
%"class.std::_Rb_tree.4" = type { %"struct.std::_Rb_tree<Imf_3_2::Name, std::pair<const Imf_3_2::Name, Imf_3_2::Slice>, std::_Select1st<std::pair<const Imf_3_2::Name, Imf_3_2::Slice>>, std::less<Imf_3_2::Name>>::_Rb_tree_impl" }
%"struct.std::_Rb_tree<Imf_3_2::Name, std::pair<const Imf_3_2::Name, Imf_3_2::Slice>, std::_Select1st<std::pair<const Imf_3_2::Name, Imf_3_2::Slice>>, std::less<Imf_3_2::Name>>::_Rb_tree_impl" = type { %"struct.std::_Rb_tree_key_compare", %"struct.std::_Rb_tree_header" }
%"class.Imf_3_2::InputFile" = type { %"class.Imf_3_2::GenericInputFile", ptr }
%"class.Imf_3_2::GenericInputFile" = type { ptr }

; Function Attrs: mustprogress uwtable
define noundef zeroext i1 @_ZNK7Imf_3_29InputFile10isCompleteEv(ptr noundef nonnull align 8 dereferenceable(16) %this) #4 align 2 {
entry:
  %retval = alloca i1, align 1
  %this.addr = alloca ptr, align 8
  store ptr %this, ptr %this.addr, align 8
  %this1 = load ptr, ptr %this.addr, align 8
  %_data = getelementptr inbounds %"class.Imf_3_2::InputFile", ptr %this1, i32 0, i32 1
  %0 = load ptr, ptr %_data, align 8
  %dsFile = getelementptr inbounds %"struct.Imf_3_2::InputFile::Data", ptr %0, i32 0, i32 7
  %1 = load ptr, ptr %dsFile, align 8
  %tobool = icmp ne ptr %1, null
  br i1 %tobool, label %if.then, label %if.else

if.then:                                          ; preds = %entry
  %_data2 = getelementptr inbounds %"class.Imf_3_2::InputFile", ptr %this1, i32 0, i32 1
  %2 = load ptr, ptr %_data2, align 8
  %dsFile3 = getelementptr inbounds %"struct.Imf_3_2::InputFile::Data", ptr %2, i32 0, i32 7
  %3 = load ptr, ptr %dsFile3, align 8
  %call = call noundef zeroext i1 @_ZNK7Imf_3_221DeepScanLineInputFile10isCompleteEv(ptr noundef nonnull align 8 dereferenceable(16) %3)
  store i1 %call, ptr %retval, align 1
  br label %return

if.else:                                          ; preds = %entry
  %_data4 = getelementptr inbounds %"class.Imf_3_2::InputFile", ptr %this1, i32 0, i32 1
  %4 = load ptr, ptr %_data4, align 8
  %isTiled = getelementptr inbounds %"struct.Imf_3_2::InputFile::Data", ptr %4, i32 0, i32 3
  %5 = load i8, ptr %isTiled, align 4
  %tobool5 = trunc i8 %5 to i1
  br i1 %tobool5, label %if.then6, label %if.else9

if.then6:                                         ; preds = %if.else
  %_data7 = getelementptr inbounds %"class.Imf_3_2::InputFile", ptr %this1, i32 0, i32 1
  %6 = load ptr, ptr %_data7, align 8
  %tFile = getelementptr inbounds %"struct.Imf_3_2::InputFile::Data", ptr %6, i32 0, i32 5
  %7 = load ptr, ptr %tFile, align 8
  %call8 = call noundef zeroext i1 @_ZNK7Imf_3_214TiledInputFile10isCompleteEv(ptr noundef nonnull align 8 dereferenceable(16) %7)
  store i1 %call8, ptr %retval, align 1
  br label %return

if.else9:                                         ; preds = %if.else
  %_data10 = getelementptr inbounds %"class.Imf_3_2::InputFile", ptr %this1, i32 0, i32 1
  %8 = load ptr, ptr %_data10, align 8
  %sFile = getelementptr inbounds %"struct.Imf_3_2::InputFile::Data", ptr %8, i32 0, i32 6
  %9 = load ptr, ptr %sFile, align 8
  %call11 = call noundef zeroext i1 @_ZNK7Imf_3_217ScanLineInputFile10isCompleteEv(ptr noundef nonnull align 8 dereferenceable(24) %9)
  store i1 %call11, ptr %retval, align 1
  br label %return

return:                                           ; preds = %if.else9, %if.then6, %if.then
  %10 = load i1, ptr %retval, align 1
  ret i1 %10
}