; Function Attrs: mustprogress uwtable
define noundef zeroext i1 @_ZNK7Imf_3_29InputFile10isCompleteEv(ptr nocapture noundef nonnull readonly align 8 dereferenceable(16) %this) local_unnamed_addr #3 align 2 {
entry:
  %_data = getelementptr inbounds i8, ptr %this, i64 8
  %0 = load ptr, ptr %_data, align 8
  %dsFile = getelementptr inbounds i8, ptr %0, i64 120
  %1 = load ptr, ptr %dsFile, align 8
  %tobool.not = icmp eq ptr %1, null
  br i1 %tobool.not, label %if.else, label %if.then

if.then:                                          ; preds = %entry
  %call = tail call noundef zeroext i1 @_ZNK7Imf_3_221DeepScanLineInputFile10isCompleteEv(ptr noundef nonnull align 8 dereferenceable(16) %1)
  br label %return

if.else:                                          ; preds = %entry
  %isTiled = getelementptr inbounds i8, ptr %0, i64 100
  %2 = load i8, ptr %isTiled, align 4
  %3 = and i8 %2, 1
  %tobool5.not = icmp eq i8 %3, 0
  br i1 %tobool5.not, label %if.else9, label %if.then6

if.then6:                                         ; preds = %if.else
  %tFile = getelementptr inbounds i8, ptr %0, i64 104
  %4 = load ptr, ptr %tFile, align 8
  %call8 = tail call noundef zeroext i1 @_ZNK7Imf_3_214TiledInputFile10isCompleteEv(ptr noundef nonnull align 8 dereferenceable(16) %4)
  br label %return

if.else9:                                         ; preds = %if.else
  %sFile = getelementptr inbounds i8, ptr %0, i64 112
  %5 = load ptr, ptr %sFile, align 8
  %call11 = tail call noundef zeroext i1 @_ZNK7Imf_3_217ScanLineInputFile10isCompleteEv(ptr noundef nonnull align 8 dereferenceable(24) %5)
  br label %return

return:                                           ; preds = %if.else9, %if.then6, %if.then
  %retval.0 = phi i1 [ %call, %if.then ], [ %call8, %if.then6 ], [ %call11, %if.else9 ]
  ret i1 %retval.0
}